target datalayout = "e-m:e-p270:32:32-p271:32:32-p272:64:64-i64:64-i128:128-f80:128-n8:16:32:64-S128"
target triple = "x86_64-pc-linux-gnu"

%struct.ma_allocation_callbacks = type { ptr, ptr, ptr, ptr }
%struct.ma_rb = type { ptr, i32, i32, i32, i32, i32, i8, i8, %struct.ma_allocation_callbacks }

; Function Attrs: alwaysinline nounwind uwtable
define internal i32 @ma_rb__extract_offset_loop_flag(i32 noundef %0) #7 {
  %2 = alloca i32, align 4
  store i32 %0, ptr %2, align 4, !tbaa !8
  %3 = load i32, ptr %2, align 4, !tbaa !8
  %4 = and i32 %3, -2147483648
  ret i32 %4
}

; Function Attrs: alwaysinline nounwind uwtable
define internal i32 @ma_rb__extract_offset_in_bytes(i32 noundef %0) #7 {
  %2 = alloca i32, align 4
  store i32 %0, ptr %2, align 4, !tbaa !8
  %3 = load i32, ptr %2, align 4, !tbaa !8
  %4 = and i32 %3, 2147483647
  ret i32 %4
}

; Function Attrs: alwaysinline nounwind uwtable
define internal ptr @ma_rb__get_read_ptr(ptr noundef %0) #7 {
  %2 = alloca ptr, align 8
  %3 = alloca i32, align 4
  store ptr %0, ptr %2, align 8, !tbaa !25
  %4 = load ptr, ptr %2, align 8, !tbaa !25
  %5 = getelementptr inbounds nuw %struct.ma_rb, ptr %4, i32 0, i32 0
  %6 = load ptr, ptr %5, align 8, !tbaa !847
  %7 = load ptr, ptr %2, align 8, !tbaa !25
  %8 = getelementptr inbounds nuw %struct.ma_rb, ptr %7, i32 0, i32 4
  %9 = load atomic i32, ptr %8 seq_cst, align 4
  store i32 %9, ptr %3, align 4
  %10 = load i32, ptr %3, align 4, !tbaa !8
  %11 = call i32 @ma_rb__extract_offset_in_bytes(i32 noundef %10)
  %12 = zext i32 %11 to i64
  %13 = getelementptr inbounds nuw i8, ptr %6, i64 %12
  ret ptr %13
}

; Function Attrs: alwaysinline nounwind uwtable
define internal void @ma_rb__deconstruct_offset(i32 noundef %0, ptr noundef %1, ptr noundef %2) #7 {
  %4 = alloca i32, align 4
  %5 = alloca ptr, align 8
  %6 = alloca ptr, align 8
  store i32 %0, ptr %4, align 4, !tbaa !8
  store ptr %1, ptr %5, align 8, !tbaa !3
  store ptr %2, ptr %6, align 8, !tbaa !3
  %7 = load i32, ptr %4, align 4, !tbaa !8
  %8 = call i32 @ma_rb__extract_offset_in_bytes(i32 noundef %7)
  %9 = load ptr, ptr %5, align 8, !tbaa !3
  store i32 %8, ptr %9, align 4, !tbaa !8
  %10 = load i32, ptr %4, align 4, !tbaa !8
  %11 = call i32 @ma_rb__extract_offset_loop_flag(i32 noundef %10)
  %12 = load ptr, ptr %6, align 8, !tbaa !3
  store i32 %11, ptr %12, align 4, !tbaa !8
  ret void
}

; Function Attrs: nounwind uwtable
define i32 @ma_rb_acquire_read(ptr noundef %0, ptr noundef %1, ptr noundef %2) #0 {
  %4 = alloca i32, align 4
  %5 = alloca ptr, align 8
  %6 = alloca ptr, align 8
  %7 = alloca ptr, align 8
  %8 = alloca i32, align 4
  %9 = alloca i32, align 4
  %10 = alloca i32, align 4
  %11 = alloca i32, align 4
  %12 = alloca i32, align 4
  %13 = alloca i32, align 4
  %14 = alloca i64, align 8
  %15 = alloca i64, align 8
  %16 = alloca i32, align 4
  %17 = alloca i32, align 4
  %18 = alloca i32, align 4
  store ptr %0, ptr %5, align 8, !tbaa !25
  store ptr %1, ptr %6, align 8, !tbaa !69
  store ptr %2, ptr %7, align 8, !tbaa !25
  call void @llvm.lifetime.start.p0(i64 4, ptr %8) #16
  call void @llvm.lifetime.start.p0(i64 4, ptr %9) #16
  call void @llvm.lifetime.start.p0(i64 4, ptr %10) #16
  call void @llvm.lifetime.start.p0(i64 4, ptr %11) #16
  call void @llvm.lifetime.start.p0(i64 4, ptr %12) #16
  call void @llvm.lifetime.start.p0(i64 4, ptr %13) #16
  call void @llvm.lifetime.start.p0(i64 8, ptr %14) #16
  call void @llvm.lifetime.start.p0(i64 8, ptr %15) #16
  %19 = load ptr, ptr %5, align 8, !tbaa !25
  %20 = icmp eq ptr %19, null
  br i1 %20, label %27, label %21

21:                                               ; preds = %3
  %22 = load ptr, ptr %6, align 8, !tbaa !69
  %23 = icmp eq ptr %22, null
  br i1 %23, label %27, label %24

24:                                               ; preds = %21
  %25 = load ptr, ptr %7, align 8, !tbaa !25
  %26 = icmp eq ptr %25, null
  br i1 %26, label %27, label %28

27:                                               ; preds = %24, %21, %3
  store i32 -2, ptr %4, align 4
  store i32 1, ptr %16, align 4
  br label %68

28:                                               ; preds = %24
  %29 = load ptr, ptr %5, align 8, !tbaa !25
  %30 = getelementptr inbounds nuw %struct.ma_rb, ptr %29, i32 0, i32 5
  %31 = load atomic i32, ptr %30 seq_cst, align 8
  store i32 %31, ptr %17, align 4
  %32 = load i32, ptr %17, align 4, !tbaa !8
  store i32 %32, ptr %8, align 4, !tbaa !8
  %33 = load i32, ptr %8, align 4, !tbaa !8
  call void @ma_rb__deconstruct_offset(i32 noundef %33, ptr noundef %9, ptr noundef %10)
  %34 = load ptr, ptr %5, align 8, !tbaa !25
  %35 = getelementptr inbounds nuw %struct.ma_rb, ptr %34, i32 0, i32 4
  %36 = load atomic i32, ptr %35 seq_cst, align 4
  store i32 %36, ptr %18, align 4
  %37 = load i32, ptr %18, align 4, !tbaa !8
  store i32 %37, ptr %11, align 4, !tbaa !8
  %38 = load i32, ptr %11, align 4, !tbaa !8
  call void @ma_rb__deconstruct_offset(i32 noundef %38, ptr noundef %12, ptr noundef %13)
  %39 = load i32, ptr %13, align 4, !tbaa !8
  %40 = load i32, ptr %10, align 4, !tbaa !8
  %41 = icmp eq i32 %39, %40
  br i1 %41, label %42, label %47

42:                                               ; preds = %28
  %43 = load i32, ptr %9, align 4, !tbaa !8
  %44 = load i32, ptr %12, align 4, !tbaa !8
  %45 = sub i32 %43, %44
  %46 = zext i32 %45 to i64
  store i64 %46, ptr %14, align 8, !tbaa !12
  br label %54

47:                                               ; preds = %28
  %48 = load ptr, ptr %5, align 8, !tbaa !25
  %49 = getelementptr inbounds nuw %struct.ma_rb, ptr %48, i32 0, i32 1
  %50 = load i32, ptr %49, align 8, !tbaa !844
  %51 = load i32, ptr %12, align 4, !tbaa !8
  %52 = sub i32 %50, %51
  %53 = zext i32 %52 to i64
  store i64 %53, ptr %14, align 8, !tbaa !12
  br label %54

54:                                               ; preds = %47, %42
  %55 = load ptr, ptr %6, align 8, !tbaa !69
  %56 = load i64, ptr %55, align 8, !tbaa !12
  store i64 %56, ptr %15, align 8, !tbaa !12
  %57 = load i64, ptr %15, align 8, !tbaa !12
  %58 = load i64, ptr %14, align 8, !tbaa !12
  %59 = icmp ugt i64 %57, %58
  br i1 %59, label %60, label %62

60:                                               ; preds = %54
  %61 = load i64, ptr %14, align 8, !tbaa !12
  store i64 %61, ptr %15, align 8, !tbaa !12
  br label %62

62:                                               ; preds = %60, %54
  %63 = load i64, ptr %15, align 8, !tbaa !12
  %64 = load ptr, ptr %6, align 8, !tbaa !69
  store i64 %63, ptr %64, align 8, !tbaa !12
  %65 = load ptr, ptr %5, align 8, !tbaa !25
  %66 = call ptr @ma_rb__get_read_ptr(ptr noundef %65)
  %67 = load ptr, ptr %7, align 8, !tbaa !25
  store ptr %66, ptr %67, align 8, !tbaa !25
  store i32 0, ptr %4, align 4
  store i32 1, ptr %16, align 4
  br label %68

68:                                               ; preds = %62, %27
  call void @llvm.lifetime.end.p0(i64 8, ptr %15) #16
  call void @llvm.lifetime.end.p0(i64 8, ptr %14) #16
  call void @llvm.lifetime.end.p0(i64 4, ptr %13) #16
  call void @llvm.lifetime.end.p0(i64 4, ptr %12) #16
  call void @llvm.lifetime.end.p0(i64 4, ptr %11) #16
  call void @llvm.lifetime.end.p0(i64 4, ptr %10) #16
  call void @llvm.lifetime.end.p0(i64 4, ptr %9) #16
  call void @llvm.lifetime.end.p0(i64 4, ptr %8) #16
  %69 = load i32, ptr %4, align 4
  ret i32 %69
}