; Function Attrs: mustprogress nofree norecurse nounwind willreturn memory(argmem: readwrite) uwtable
define range(i32 -2, 1) i32 @ma_rb_acquire_read(ptr noundef readonly captures(address_is_null) %0, ptr noundef captures(address_is_null) %1, ptr noundef writeonly captures(address_is_null) %2) local_unnamed_addr #26 {
  %4 = icmp eq ptr %0, null
  %5 = icmp eq ptr %1, null
  %or.cond = or i1 %4, %5
  %6 = icmp eq ptr %2, null
  %or.cond3 = or i1 %or.cond, %6
  br i1 %or.cond3, label %27, label %7

7:                                                ; preds = %3
  %8 = getelementptr inbounds nuw i8, ptr %0, i64 24
  %9 = load atomic i32, ptr %8 seq_cst, align 8
  %10 = getelementptr inbounds nuw i8, ptr %0, i64 20
  %11 = load atomic i32, ptr %10 seq_cst, align 4
  %12 = and i32 %11, 2147483647
  %13 = xor i32 %11, %9
  %14 = icmp sgt i32 %13, -1
  br i1 %14, label %15, label %17

15:                                               ; preds = %7
  %16 = and i32 %9, 2147483647
  br label %20

17:                                               ; preds = %7
  %18 = getelementptr inbounds nuw i8, ptr %0, i64 8
  %19 = load i32, ptr %18, align 8, !tbaa !345
  br label %20

20:                                               ; preds = %17, %15
  %.pn = phi i32 [ %16, %15 ], [ %19, %17 ]
  %.021.in = sub i32 %.pn, %12
  %.021 = zext i32 %.021.in to i64
  %21 = load i64, ptr %1, align 8, !tbaa !52
  %spec.select = tail call i64 @llvm.umin.i64(i64 %21, i64 %.021)
  store i64 %spec.select, ptr %1, align 8, !tbaa !52
  %22 = load ptr, ptr %0, align 8, !tbaa !327
  %23 = load atomic i32, ptr %10 seq_cst, align 4
  %24 = and i32 %23, 2147483647
  %25 = zext nneg i32 %24 to i64
  %26 = getelementptr inbounds nuw i8, ptr %22, i64 %25
  store ptr %26, ptr %2, align 8, !tbaa !27
  br label %27

27:                                               ; preds = %3, %20
  %.0 = phi i32 [ 0, %20 ], [ -2, %3 ]
  ret i32 %.0
}